(dp0
Vengine
p1
S'pdflatex'
p2
sVpackages
p3
c__builtin__
set
p4
((lp5
Vcancel
p6
aVcolor
p7
aVpreamble
p8
aVcolortbl
p9
aVtabu
p10
atp11
Rp12
sVfiles_with_guttermarks
p13
g4
((lp14
V/Users/Andreas/Desktop/UiO/MAT-INF4130/Mand3/./oblig2.tex
p15
aS'oblig2.tex'
p16
atp17
Rp18
sVsynctex
p19
I01
s.