(dp0
Vengine
p1
S'pdflatex'
p2
sVpackages
p3
c__builtin__
set
p4
((lp5
Vcolor
p6
aVpreamble
p7
aVcolortbl
p8
aVtabu
p9
atp10
Rp11
sVfiles_with_guttermarks
p12
g4
((lp13
V/Users/Andreas/Desktop/UiO/MAT-INF4130/Mand3/./oblig.tex
p14
aS'oblig.tex'
p15
atp16
Rp17
sVsynctex
p18
I01
s.