(dp0
Vengine
p1
S'pdflatex'
p2
sVpackages
p3
c__builtin__
set
p4
((lp5
Vpreamble
p6
atp7
Rp8
sVfiles_with_guttermarks
p9
g4
((lp10
V/Users/Andreas/Desktop/UiO/MAT-INF4130/Mand1/./oblig1.tex
p11
aS'oblig1.tex'
p12
aV/Users/Andreas/Desktop/UiO/MAT-INF4130/Mand1/oblig1.tex
p13
atp14
Rp15
sVsynctex
p16
I01
s.