(dp0
Vengine
p1
S'pdflatex'
p2
sVpackages
p3
c__builtin__
set
p4
((lp5
Vamsmath
p6
aVpreamble
p7
atp8
Rp9
sVfiles_with_guttermarks
p10
g4
((lp11
V/Users/Andreas/Desktop/UiO/MAT-INF4130/Mand1/./oblig1.tex
p12
aS'oblig1.tex'
p13
aV/Users/Andreas/Desktop/UiO/MAT-INF4130/Mand1/oblig1.tex
p14
atp15
Rp16
sVsynctex
p17
I01
s.